; Function Attrs: nounwind uwtable
define i32 @exr_write_scanline_chunk(ptr noundef %0, i32 noundef %1, i32 noundef %2, ptr noundef %3, i64 noundef %4) local_unnamed_addr #0 {
  %.not = icmp eq ptr %0, null
  br i1 %.not, label %35, label %6

6:                                                ; preds = %5
  %7 = getelementptr inbounds nuw i8, ptr %0, i64 504
  %8 = tail call i32 @pthread_mutex_lock(ptr noundef nonnull %7) #8
  %9 = icmp slt i32 %1, 0
  br i1 %9, label %13, label %10

10:                                               ; preds = %6
  %11 = getelementptr inbounds nuw i8, ptr %0, i64 196
  %12 = load i32, ptr %11, align 4, !tbaa !22
  %.not25 = icmp slt i32 %1, %12
  br i1 %.not25, label %18, label %13

13:                                               ; preds = %10, %6
  %14 = tail call i32 @pthread_mutex_unlock(ptr noundef nonnull %7) #8
  %15 = getelementptr inbounds nuw i8, ptr %0, i64 72
  %16 = load ptr, ptr %15, align 8, !tbaa !23
  %17 = tail call i32 (ptr, i32, ptr, ...) %16(ptr noundef nonnull %0, i32 noundef 4, ptr noundef nonnull @.str, i32 noundef %1) #8
  br label %35

18:                                               ; preds = %10
  %19 = getelementptr inbounds nuw i8, ptr %0, i64 472
  %20 = load ptr, ptr %19, align 8, !tbaa !25
  %21 = zext nneg i32 %1 to i64
  %22 = getelementptr inbounds nuw ptr, ptr %20, i64 %21
  %23 = load ptr, ptr %22, align 8, !tbaa !26
  %24 = getelementptr inbounds nuw i8, ptr %23, i64 4
  %25 = load i32, ptr %24, align 4, !tbaa !44
  %26 = icmp eq i32 %25, 2
  br i1 %26, label %27, label %32

27:                                               ; preds = %18
  %28 = tail call i32 @pthread_mutex_unlock(ptr noundef nonnull %7) #8
  %29 = getelementptr inbounds nuw i8, ptr %0, i64 56
  %30 = load ptr, ptr %29, align 8, !tbaa !24
  %31 = tail call i32 %30(ptr noundef nonnull %0, i32 noundef 27) #8
  br label %35

32:                                               ; preds = %18
  %33 = tail call fastcc i32 @write_scan_chunk(ptr noundef %0, i32 noundef %1, ptr noundef nonnull %23, i32 noundef %2, ptr noundef %3, i64 noundef %4, i64 noundef 0, ptr noundef null, i64 noundef 0)
  %34 = tail call i32 @pthread_mutex_unlock(ptr noundef nonnull %7) #8
  br label %35

35:                                               ; preds = %5, %32, %27, %13
  %.0 = phi i32 [ %17, %13 ], [ %31, %27 ], [ %33, %32 ], [ 2, %5 ]
  ret i32 %.0
}